target datalayout = "e-m:e-p270:32:32-p271:32:32-p272:64:64-i64:64-i128:128-f80:128-n8:16:32:64-S128"
target triple = "x86_64-pc-linux-gnu"

%struct.SeqStore_t = type { ptr, ptr, ptr, ptr, ptr, ptr, ptr, i64, i64, i32, i32 }
%struct.SeqDef_s = type { i32, i16, i16 }

@ZSTD_LLcode.LL_Code = internal constant [64 x i8] c"\00\01\02\03\04\05\06\07\08\09\0A\0B\0C\0D\0E\0F\10\10\11\11\12\12\13\13\14\14\14\14\15\15\15\15\16\16\16\16\16\16\16\16\17\17\17\17\17\17\17\17\18\18\18\18\18\18\18\18\18\18\18\18\18\18\18\18", align 16
@ZSTD_MLcode.ML_Code = internal constant [128 x i8] c"\00\01\02\03\04\05\06\07\08\09\0A\0B\0C\0D\0E\0F\10\11\12\13\14\15\16\17\18\19\1A\1B\1C\1D\1E\1F  !!\22\22##$$$$%%%%&&&&&&&&''''''''(((((((((((((((())))))))))))))))********************************", align 16

; Function Attrs: inlinehint nounwind uwtable
define internal i32 @ZSTD_countLeadingZeros32(i32 noundef %0) #2 {
  %2 = alloca i32, align 4
  store i32 %0, ptr %2, align 4, !tbaa !53
  %3 = load i32, ptr %2, align 4, !tbaa !53
  %4 = call i32 @llvm.ctlz.i32(i32 %3, i1 true)
  ret i32 %4
}

; Function Attrs: inlinehint nounwind uwtable
define internal i32 @MEM_32bits() #2 {
  ret i32 0
}

; Function Attrs: inlinehint nounwind uwtable
define internal i32 @ZSTD_MLcode(i32 noundef %0) #2 {
  %2 = alloca i32, align 4
  store i32 %0, ptr %2, align 4, !tbaa !53
  %3 = load i32, ptr %2, align 4, !tbaa !53
  %4 = icmp ugt i32 %3, 127
  br i1 %4, label %5, label %9

5:                                                ; preds = %1
  %6 = load i32, ptr %2, align 4, !tbaa !53
  %7 = call i32 @ZSTD_highbit32(i32 noundef %6)
  %8 = add i32 %7, 36
  br label %15

9:                                                ; preds = %1
  %10 = load i32, ptr %2, align 4, !tbaa !53
  %11 = zext i32 %10 to i64
  %12 = getelementptr inbounds nuw [128 x i8], ptr @ZSTD_MLcode.ML_Code, i64 0, i64 %11
  %13 = load i8, ptr %12, align 1, !tbaa !65
  %14 = zext i8 %13 to i32
  br label %15

15:                                               ; preds = %9, %5
  %16 = phi i32 [ %8, %5 ], [ %14, %9 ]
  ret i32 %16
}

; Function Attrs: inlinehint nounwind uwtable
define internal i32 @ZSTD_LLcode(i32 noundef %0) #2 {
  %2 = alloca i32, align 4
  store i32 %0, ptr %2, align 4, !tbaa !53
  %3 = load i32, ptr %2, align 4, !tbaa !53
  %4 = icmp ugt i32 %3, 63
  br i1 %4, label %5, label %9

5:                                                ; preds = %1
  %6 = load i32, ptr %2, align 4, !tbaa !53
  %7 = call i32 @ZSTD_highbit32(i32 noundef %6)
  %8 = add i32 %7, 19
  br label %15

9:                                                ; preds = %1
  %10 = load i32, ptr %2, align 4, !tbaa !53
  %11 = zext i32 %10 to i64
  %12 = getelementptr inbounds nuw [64 x i8], ptr @ZSTD_LLcode.LL_Code, i64 0, i64 %11
  %13 = load i8, ptr %12, align 1, !tbaa !65
  %14 = zext i8 %13 to i32
  br label %15

15:                                               ; preds = %9, %5
  %16 = phi i32 [ %8, %5 ], [ %14, %9 ]
  ret i32 %16
}

; Function Attrs: inlinehint nounwind uwtable
define internal i32 @ZSTD_highbit32(i32 noundef %0) #2 {
  %2 = alloca i32, align 4
  store i32 %0, ptr %2, align 4, !tbaa !53
  %3 = load i32, ptr %2, align 4, !tbaa !53
  %4 = call i32 @ZSTD_countLeadingZeros32(i32 noundef %3)
  %5 = sub i32 31, %4
  ret i32 %5
}

; Function Attrs: nounwind uwtable
define i32 @ZSTD_seqToCodes(ptr noundef %0) #0 {
  %2 = alloca ptr, align 8
  %3 = alloca ptr, align 8
  %4 = alloca ptr, align 8
  %5 = alloca ptr, align 8
  %6 = alloca ptr, align 8
  %7 = alloca i32, align 4
  %8 = alloca i32, align 4
  %9 = alloca i32, align 4
  %10 = alloca i32, align 4
  %11 = alloca i32, align 4
  %12 = alloca i32, align 4
  store ptr %0, ptr %2, align 8, !tbaa !15
  call void @llvm.lifetime.start.p0(i64 8, ptr %3) #15
  %13 = load ptr, ptr %2, align 8, !tbaa !15
  %14 = getelementptr inbounds nuw %struct.SeqStore_t, ptr %13, i32 0, i32 0
  %15 = load ptr, ptr %14, align 8, !tbaa !203
  store ptr %15, ptr %3, align 8, !tbaa !204
  call void @llvm.lifetime.start.p0(i64 8, ptr %4) #15
  %16 = load ptr, ptr %2, align 8, !tbaa !15
  %17 = getelementptr inbounds nuw %struct.SeqStore_t, ptr %16, i32 0, i32 4
  %18 = load ptr, ptr %17, align 8, !tbaa !205
  store ptr %18, ptr %4, align 8, !tbaa !198
  call void @llvm.lifetime.start.p0(i64 8, ptr %5) #15
  %19 = load ptr, ptr %2, align 8, !tbaa !15
  %20 = getelementptr inbounds nuw %struct.SeqStore_t, ptr %19, i32 0, i32 6
  %21 = load ptr, ptr %20, align 8, !tbaa !206
  store ptr %21, ptr %5, align 8, !tbaa !198
  call void @llvm.lifetime.start.p0(i64 8, ptr %6) #15
  %22 = load ptr, ptr %2, align 8, !tbaa !15
  %23 = getelementptr inbounds nuw %struct.SeqStore_t, ptr %22, i32 0, i32 5
  %24 = load ptr, ptr %23, align 8, !tbaa !207
  store ptr %24, ptr %6, align 8, !tbaa !198
  call void @llvm.lifetime.start.p0(i64 4, ptr %7) #15
  %25 = load ptr, ptr %2, align 8, !tbaa !15
  %26 = getelementptr inbounds nuw %struct.SeqStore_t, ptr %25, i32 0, i32 1
  %27 = load ptr, ptr %26, align 8, !tbaa !208
  %28 = load ptr, ptr %2, align 8, !tbaa !15
  %29 = getelementptr inbounds nuw %struct.SeqStore_t, ptr %28, i32 0, i32 0
  %30 = load ptr, ptr %29, align 8, !tbaa !203
  %31 = ptrtoint ptr %27 to i64
  %32 = ptrtoint ptr %30 to i64
  %33 = sub i64 %31, %32
  %34 = sdiv exact i64 %33, 8
  %35 = trunc i64 %34 to i32
  store i32 %35, ptr %7, align 4, !tbaa !53
  call void @llvm.lifetime.start.p0(i64 4, ptr %8) #15
  call void @llvm.lifetime.start.p0(i64 4, ptr %9) #15
  store i32 0, ptr %9, align 4, !tbaa !53
  store i32 0, ptr %8, align 4, !tbaa !53
  br label %36

36:                                               ; preds = %92, %1
  %37 = load i32, ptr %8, align 4, !tbaa !53
  %38 = load i32, ptr %7, align 4, !tbaa !53
  %39 = icmp ult i32 %37, %38
  br i1 %39, label %40, label %95

40:                                               ; preds = %36
  call void @llvm.lifetime.start.p0(i64 4, ptr %10) #15
  %41 = load ptr, ptr %3, align 8, !tbaa !204
  %42 = load i32, ptr %8, align 4, !tbaa !53
  %43 = zext i32 %42 to i64
  %44 = getelementptr inbounds nuw %struct.SeqDef_s, ptr %41, i64 %43
  %45 = getelementptr inbounds nuw %struct.SeqDef_s, ptr %44, i32 0, i32 1
  %46 = load i16, ptr %45, align 4, !tbaa !209
  %47 = zext i16 %46 to i32
  store i32 %47, ptr %10, align 4, !tbaa !53
  call void @llvm.lifetime.start.p0(i64 4, ptr %11) #15
  %48 = load ptr, ptr %3, align 8, !tbaa !204
  %49 = load i32, ptr %8, align 4, !tbaa !53
  %50 = zext i32 %49 to i64
  %51 = getelementptr inbounds nuw %struct.SeqDef_s, ptr %48, i64 %50
  %52 = getelementptr inbounds nuw %struct.SeqDef_s, ptr %51, i32 0, i32 0
  %53 = load i32, ptr %52, align 4, !tbaa !212
  %54 = call i32 @ZSTD_highbit32(i32 noundef %53)
  store i32 %54, ptr %11, align 4, !tbaa !53
  call void @llvm.lifetime.start.p0(i64 4, ptr %12) #15
  %55 = load ptr, ptr %3, align 8, !tbaa !204
  %56 = load i32, ptr %8, align 4, !tbaa !53
  %57 = zext i32 %56 to i64
  %58 = getelementptr inbounds nuw %struct.SeqDef_s, ptr %55, i64 %57
  %59 = getelementptr inbounds nuw %struct.SeqDef_s, ptr %58, i32 0, i32 2
  %60 = load i16, ptr %59, align 2, !tbaa !213
  %61 = zext i16 %60 to i32
  store i32 %61, ptr %12, align 4, !tbaa !53
  %62 = load i32, ptr %10, align 4, !tbaa !53
  %63 = call i32 @ZSTD_LLcode(i32 noundef %62)
  %64 = trunc i32 %63 to i8
  %65 = load ptr, ptr %4, align 8, !tbaa !198
  %66 = load i32, ptr %8, align 4, !tbaa !53
  %67 = zext i32 %66 to i64
  %68 = getelementptr inbounds nuw i8, ptr %65, i64 %67
  store i8 %64, ptr %68, align 1, !tbaa !65
  %69 = load i32, ptr %11, align 4, !tbaa !53
  %70 = trunc i32 %69 to i8
  %71 = load ptr, ptr %5, align 8, !tbaa !198
  %72 = load i32, ptr %8, align 4, !tbaa !53
  %73 = zext i32 %72 to i64
  %74 = getelementptr inbounds nuw i8, ptr %71, i64 %73
  store i8 %70, ptr %74, align 1, !tbaa !65
  %75 = load i32, ptr %12, align 4, !tbaa !53
  %76 = call i32 @ZSTD_MLcode(i32 noundef %75)
  %77 = trunc i32 %76 to i8
  %78 = load ptr, ptr %6, align 8, !tbaa !198
  %79 = load i32, ptr %8, align 4, !tbaa !53
  %80 = zext i32 %79 to i64
  %81 = getelementptr inbounds nuw i8, ptr %78, i64 %80
  store i8 %77, ptr %81, align 1, !tbaa !65
  %82 = call i32 @MEM_32bits()
  %83 = icmp ne i32 %82, 0
  br i1 %83, label %84, label %91

84:                                               ; preds = %40
  %85 = load i32, ptr %11, align 4, !tbaa !53
  %86 = call i32 @MEM_32bits()
  %87 = icmp ne i32 %86, 0
  %88 = select i1 %87, i32 25, i32 57
  %89 = icmp uge i32 %85, %88
  br i1 %89, label %90, label %91

90:                                               ; preds = %84
  store i32 1, ptr %9, align 4, !tbaa !53
  br label %91

91:                                               ; preds = %90, %84, %40
  call void @llvm.lifetime.end.p0(i64 4, ptr %12) #15
  call void @llvm.lifetime.end.p0(i64 4, ptr %11) #15
  call void @llvm.lifetime.end.p0(i64 4, ptr %10) #15
  br label %92

92:                                               ; preds = %91
  %93 = load i32, ptr %8, align 4, !tbaa !53
  %94 = add i32 %93, 1
  store i32 %94, ptr %8, align 4, !tbaa !53
  br label %36, !llvm.loop !214

95:                                               ; preds = %36
  %96 = load ptr, ptr %2, align 8, !tbaa !15
  %97 = getelementptr inbounds nuw %struct.SeqStore_t, ptr %96, i32 0, i32 9
  %98 = load i32, ptr %97, align 8, !tbaa !215
  %99 = icmp eq i32 %98, 1
  br i1 %99, label %100, label %107

100:                                              ; preds = %95
  %101 = load ptr, ptr %4, align 8, !tbaa !198
  %102 = load ptr, ptr %2, align 8, !tbaa !15
  %103 = getelementptr inbounds nuw %struct.SeqStore_t, ptr %102, i32 0, i32 10
  %104 = load i32, ptr %103, align 4, !tbaa !216
  %105 = zext i32 %104 to i64
  %106 = getelementptr inbounds nuw i8, ptr %101, i64 %105
  store i8 35, ptr %106, align 1, !tbaa !65
  br label %107

107:                                              ; preds = %100, %95
  %108 = load ptr, ptr %2, align 8, !tbaa !15
  %109 = getelementptr inbounds nuw %struct.SeqStore_t, ptr %108, i32 0, i32 9
  %110 = load i32, ptr %109, align 8, !tbaa !215
  %111 = icmp eq i32 %110, 2
  br i1 %111, label %112, label %119

112:                                              ; preds = %107
  %113 = load ptr, ptr %6, align 8, !tbaa !198
  %114 = load ptr, ptr %2, align 8, !tbaa !15
  %115 = getelementptr inbounds nuw %struct.SeqStore_t, ptr %114, i32 0, i32 10
  %116 = load i32, ptr %115, align 4, !tbaa !216
  %117 = zext i32 %116 to i64
  %118 = getelementptr inbounds nuw i8, ptr %113, i64 %117
  store i8 52, ptr %118, align 1, !tbaa !65
  br label %119

119:                                              ; preds = %112, %107
  %120 = load i32, ptr %9, align 4, !tbaa !53
  call void @llvm.lifetime.end.p0(i64 4, ptr %9) #15
  call void @llvm.lifetime.end.p0(i64 4, ptr %8) #15
  call void @llvm.lifetime.end.p0(i64 4, ptr %7) #15
  call void @llvm.lifetime.end.p0(i64 8, ptr %6) #15
  call void @llvm.lifetime.end.p0(i64 8, ptr %5) #15
  call void @llvm.lifetime.end.p0(i64 8, ptr %4) #15
  call void @llvm.lifetime.end.p0(i64 8, ptr %3) #15
  ret i32 %120
}