; Function Attrs: nofree norecurse nosync nounwind memory(readwrite, inaccessiblemem: none) uwtable
define noundef i32 @ZSTD_seqToCodes(ptr noundef readonly captures(none) %0) local_unnamed_addr #12 {
  %2 = load ptr, ptr %0, align 8, !tbaa !184
  %3 = getelementptr inbounds nuw i8, ptr %0, i64 32
  %4 = load ptr, ptr %3, align 8, !tbaa !185
  %5 = getelementptr inbounds nuw i8, ptr %0, i64 48
  %6 = load ptr, ptr %5, align 8, !tbaa !186
  %7 = getelementptr inbounds nuw i8, ptr %0, i64 40
  %8 = load ptr, ptr %7, align 8, !tbaa !187
  %9 = getelementptr inbounds nuw i8, ptr %0, i64 8
  %10 = load ptr, ptr %9, align 8, !tbaa !188
  %11 = ptrtoint ptr %10 to i64
  %12 = ptrtoint ptr %2 to i64
  %13 = sub i64 %11, %12
  %14 = and i64 %13, 34359738360
  %.not = icmp eq i64 %14, 0
  br i1 %.not, label %._crit_edge, label %.lr.ph.preheader

.lr.ph.preheader:                                 ; preds = %1
  %15 = lshr exact i64 %13, 3
  %wide.trip.count = and i64 %15, 4294967295
  br label %.lr.ph

.lr.ph:                                           ; preds = %.lr.ph.preheader, %ZSTD_MLcode.exit
  %indvars.iv = phi i64 [ 0, %.lr.ph.preheader ], [ %indvars.iv.next, %ZSTD_MLcode.exit ]
  %16 = getelementptr inbounds nuw %struct.SeqDef_s, ptr %2, i64 %indvars.iv
  %17 = getelementptr inbounds nuw i8, ptr %16, i64 4
  %18 = load i16, ptr %17, align 4, !tbaa !189
  %19 = load i32, ptr %16, align 4, !tbaa !192
  %20 = tail call range(i32 0, 32) i32 @llvm.ctlz.i32(i32 %19, i1 true)
  %21 = getelementptr inbounds nuw i8, ptr %16, i64 6
  %22 = load i16, ptr %21, align 2, !tbaa !193
  %23 = zext i16 %22 to i32
  %24 = icmp ugt i16 %18, 63
  br i1 %24, label %25, label %30

25:                                               ; preds = %.lr.ph
  %26 = zext i16 %18 to i32
  %27 = tail call range(i32 0, 32) i32 @llvm.ctlz.i32(i32 range(i32 0, 65536) %26, i1 true)
  %28 = trunc nuw nsw i32 %27 to i8
  %29 = sub nuw nsw i8 50, %28
  br label %ZSTD_LLcode.exit

30:                                               ; preds = %.lr.ph
  %31 = zext nneg i16 %18 to i64
  %32 = getelementptr inbounds nuw [64 x i8], ptr @ZSTD_LLcode.LL_Code, i64 0, i64 %31
  %33 = load i8, ptr %32, align 1, !tbaa !194
  br label %ZSTD_LLcode.exit

ZSTD_LLcode.exit:                                 ; preds = %25, %30
  %34 = phi i8 [ %29, %25 ], [ %33, %30 ]
  %35 = getelementptr inbounds nuw i8, ptr %4, i64 %indvars.iv
  store i8 %34, ptr %35, align 1, !tbaa !194
  %36 = trunc nuw nsw i32 %20 to i8
  %37 = xor i8 %36, 31
  %38 = getelementptr inbounds nuw i8, ptr %6, i64 %indvars.iv
  store i8 %37, ptr %38, align 1, !tbaa !194
  %39 = icmp ugt i16 %22, 127
  br i1 %39, label %40, label %44

40:                                               ; preds = %ZSTD_LLcode.exit
  %41 = tail call range(i32 0, 32) i32 @llvm.ctlz.i32(i32 range(i32 0, 65536) %23, i1 true)
  %42 = trunc nuw nsw i32 %41 to i8
  %43 = sub nuw nsw i8 67, %42
  br label %ZSTD_MLcode.exit

44:                                               ; preds = %ZSTD_LLcode.exit
  %45 = zext nneg i16 %22 to i64
  %46 = getelementptr inbounds nuw [128 x i8], ptr @ZSTD_MLcode.ML_Code, i64 0, i64 %45
  %47 = load i8, ptr %46, align 1, !tbaa !194
  br label %ZSTD_MLcode.exit

ZSTD_MLcode.exit:                                 ; preds = %40, %44
  %48 = phi i8 [ %43, %40 ], [ %47, %44 ]
  %49 = getelementptr inbounds nuw i8, ptr %8, i64 %indvars.iv
  store i8 %48, ptr %49, align 1, !tbaa !194
  %indvars.iv.next = add nuw nsw i64 %indvars.iv, 1
  %exitcond.not = icmp eq i64 %indvars.iv.next, %wide.trip.count
  br i1 %exitcond.not, label %._crit_edge, label %.lr.ph, !llvm.loop !195

._crit_edge:                                      ; preds = %ZSTD_MLcode.exit, %1
  %50 = getelementptr inbounds nuw i8, ptr %0, i64 72
  %51 = load i32, ptr %50, align 8, !tbaa !196
  %52 = icmp eq i32 %51, 1
  br i1 %52, label %53, label %58

53:                                               ; preds = %._crit_edge
  %54 = getelementptr inbounds nuw i8, ptr %0, i64 76
  %55 = load i32, ptr %54, align 4, !tbaa !197
  %56 = zext i32 %55 to i64
  %57 = getelementptr inbounds nuw i8, ptr %4, i64 %56
  store i8 35, ptr %57, align 1, !tbaa !194
  %.pr = load i32, ptr %50, align 8, !tbaa !196
  br label %58

58:                                               ; preds = %53, %._crit_edge
  %59 = phi i32 [ %.pr, %53 ], [ %51, %._crit_edge ]
  %60 = icmp eq i32 %59, 2
  br i1 %60, label %61, label %66

61:                                               ; preds = %58
  %62 = getelementptr inbounds nuw i8, ptr %0, i64 76
  %63 = load i32, ptr %62, align 4, !tbaa !197
  %64 = zext i32 %63 to i64
  %65 = getelementptr inbounds nuw i8, ptr %8, i64 %64
  store i8 52, ptr %65, align 1, !tbaa !194
  br label %66

66:                                               ; preds = %61, %58
  ret i32 0
}